; Function Attrs: mustprogress uwtable
define noundef zeroext i1 @Z3_open_log(ptr noundef %0) local_unnamed_addr #3 personality ptr @__gxx_personality_v0 {
  %2 = alloca i8, align 1
  %3 = load ptr, ptr @_ZL8g_z3_log, align 8, !tbaa !3
  %.not.i = icmp eq ptr %3, null
  br i1 %.not.i, label %_ZL19Z3_close_log_unsafev.exit, label %_Z7deallocISoEvPT_.exit.i

_Z7deallocISoEvPT_.exit.i:                        ; preds = %1
  store atomic i8 0, ptr @g_z3_log_enabled seq_cst, align 1
  %4 = load ptr, ptr %3, align 8, !tbaa !9
  %5 = load ptr, ptr %4, align 8
  tail call void %5(ptr noundef nonnull align 8 dereferenceable(8) %3) #12
  tail call void @_ZN6memory10deallocateEPv(ptr noundef nonnull %3)
  store ptr null, ptr @_ZL8g_z3_log, align 8, !tbaa !3
  br label %_ZL19Z3_close_log_unsafev.exit

_ZL19Z3_close_log_unsafev.exit:                   ; preds = %1, %_Z7deallocISoEvPT_.exit.i
  %6 = tail call noalias noundef ptr @_ZN6memory8allocateEm(i64 noundef 512)
  tail call void @_ZNSt14basic_ofstreamIcSt11char_traitsIcEEC1EPKcSt13_Ios_Openmode(ptr noundef nonnull align 8 dereferenceable(248) %6, ptr noundef %0, i32 noundef 16)
  store ptr %6, ptr @_ZL8g_z3_log, align 8, !tbaa !3
  %7 = load ptr, ptr %6, align 8, !tbaa !9
  %8 = getelementptr i8, ptr %7, i64 -24
  %9 = load i64, ptr %8, align 8
  %10 = getelementptr inbounds i8, ptr %6, i64 %9
  %11 = getelementptr inbounds nuw i8, ptr %10, i64 32
  %12 = load i32, ptr %11, align 8, !tbaa !42
  %13 = and i32 %12, 5
  %or.cond.not = icmp eq i32 %13, 0
  br i1 %or.cond.not, label %15, label %_Z7deallocISoEvPT_.exit

_Z7deallocISoEvPT_.exit:                          ; preds = %_ZL19Z3_close_log_unsafev.exit
  %14 = load ptr, ptr %7, align 8
  tail call void %14(ptr noundef nonnull align 8 dereferenceable(8) %6) #12
  tail call void @_ZN6memory10deallocateEPv(ptr noundef nonnull %6)
  store ptr null, ptr @_ZL8g_z3_log, align 8, !tbaa !3
  br label %53

15:                                               ; preds = %_ZL19Z3_close_log_unsafev.exit
  %16 = tail call noundef nonnull align 8 dereferenceable(8) ptr @_ZSt16__ostream_insertIcSt11char_traitsIcEERSt13basic_ostreamIT_T0_ES6_PKS3_l(ptr noundef nonnull align 8 dereferenceable(8) %6, ptr noundef nonnull @.str.15, i64 noundef 3)
  %17 = tail call noundef nonnull align 8 dereferenceable(8) ptr @_ZNSolsEi(ptr noundef nonnull align 8 dereferenceable(8) %6, i32 noundef 4)
  %18 = tail call noundef nonnull align 8 dereferenceable(8) ptr @_ZSt16__ostream_insertIcSt11char_traitsIcEERSt13basic_ostreamIT_T0_ES6_PKS3_l(ptr noundef nonnull align 8 dereferenceable(8) %17, ptr noundef nonnull @.str.16, i64 noundef 1)
  %19 = tail call noundef nonnull align 8 dereferenceable(8) ptr @_ZNSolsEi(ptr noundef nonnull align 8 dereferenceable(8) %17, i32 noundef 14)
  %20 = tail call noundef nonnull align 8 dereferenceable(8) ptr @_ZSt16__ostream_insertIcSt11char_traitsIcEERSt13basic_ostreamIT_T0_ES6_PKS3_l(ptr noundef nonnull align 8 dereferenceable(8) %19, ptr noundef nonnull @.str.16, i64 noundef 1)
  %21 = tail call noundef nonnull align 8 dereferenceable(8) ptr @_ZNSolsEi(ptr noundef nonnull align 8 dereferenceable(8) %19, i32 noundef 1)
  %22 = tail call noundef nonnull align 8 dereferenceable(8) ptr @_ZSt16__ostream_insertIcSt11char_traitsIcEERSt13basic_ostreamIT_T0_ES6_PKS3_l(ptr noundef nonnull align 8 dereferenceable(8) %21, ptr noundef nonnull @.str.16, i64 noundef 1)
  %23 = tail call noundef nonnull align 8 dereferenceable(8) ptr @_ZNSolsEi(ptr noundef nonnull align 8 dereferenceable(8) %21, i32 noundef 0)
  call void @llvm.lifetime.start.p0(i64 1, ptr nonnull %2)
  store i8 34, ptr %2, align 1, !tbaa !8
  %24 = load ptr, ptr %23, align 8, !tbaa !9
  %25 = getelementptr i8, ptr %24, i64 -24
  %26 = load i64, ptr %25, align 8
  %27 = getelementptr inbounds i8, ptr %23, i64 %26
  %28 = getelementptr inbounds nuw i8, ptr %27, i64 16
  %29 = load i64, ptr %28, align 8, !tbaa !11
  %.not.i2 = icmp eq i64 %29, 0
  br i1 %.not.i2, label %32, label %30

30:                                               ; preds = %15
  %31 = call noundef nonnull align 8 dereferenceable(8) ptr @_ZSt16__ostream_insertIcSt11char_traitsIcEERSt13basic_ostreamIT_T0_ES6_PKS3_l(ptr noundef nonnull align 8 dereferenceable(8) %23, ptr noundef nonnull %2, i64 noundef 1)
  br label %_ZStlsISt11char_traitsIcEERSt13basic_ostreamIcT_ES5_c.exit

32:                                               ; preds = %15
  %33 = tail call noundef nonnull align 8 dereferenceable(8) ptr @_ZNSo3putEc(ptr noundef nonnull align 8 dereferenceable(8) %23, i8 noundef signext 34)
  br label %_ZStlsISt11char_traitsIcEERSt13basic_ostreamIcT_ES5_c.exit

_ZStlsISt11char_traitsIcEERSt13basic_ostreamIcT_ES5_c.exit: ; preds = %30, %32
  %.0.i = phi ptr [ %31, %30 ], [ %23, %32 ]
  call void @llvm.lifetime.end.p0(i64 1, ptr nonnull %2)
  %34 = load ptr, ptr %.0.i, align 8, !tbaa !9
  %35 = getelementptr i8, ptr %34, i64 -24
  %36 = load i64, ptr %35, align 8
  %37 = getelementptr inbounds i8, ptr %.0.i, i64 %36
  %38 = getelementptr inbounds nuw i8, ptr %37, i64 240
  %39 = load ptr, ptr %38, align 8, !tbaa !22
  %.not.i.i.i = icmp eq ptr %39, null
  br i1 %.not.i.i.i, label %40, label %_ZSt13__check_facetISt5ctypeIcEERKT_PS3_.exit.i.i

40:                                               ; preds = %_ZStlsISt11char_traitsIcEERSt13basic_ostreamIcT_ES5_c.exit
  call void @_ZSt16__throw_bad_castv() #11
  unreachable

_ZSt13__check_facetISt5ctypeIcEERKT_PS3_.exit.i.i: ; preds = %_ZStlsISt11char_traitsIcEERSt13basic_ostreamIcT_ES5_c.exit
  %41 = getelementptr inbounds nuw i8, ptr %39, i64 56
  %42 = load i8, ptr %41, align 8, !tbaa !29
  %.not.i1.i.i = icmp eq i8 %42, 0
  br i1 %.not.i1.i.i, label %46, label %43

43:                                               ; preds = %_ZSt13__check_facetISt5ctypeIcEERKT_PS3_.exit.i.i
  %44 = getelementptr inbounds nuw i8, ptr %39, i64 67
  %45 = load i8, ptr %44, align 1, !tbaa !8
  br label %_ZSt4endlIcSt11char_traitsIcEERSt13basic_ostreamIT_T0_ES6_.exit

46:                                               ; preds = %_ZSt13__check_facetISt5ctypeIcEERKT_PS3_.exit.i.i
  call void @_ZNKSt5ctypeIcE13_M_widen_initEv(ptr noundef nonnull align 8 dereferenceable(570) %39)
  %47 = load ptr, ptr %39, align 8, !tbaa !9
  %48 = getelementptr inbounds nuw i8, ptr %47, i64 48
  %49 = load ptr, ptr %48, align 8
  %50 = call noundef signext i8 %49(ptr noundef nonnull align 8 dereferenceable(570) %39, i8 noundef signext 10)
  br label %_ZSt4endlIcSt11char_traitsIcEERSt13basic_ostreamIT_T0_ES6_.exit

_ZSt4endlIcSt11char_traitsIcEERSt13basic_ostreamIT_T0_ES6_.exit: ; preds = %43, %46
  %.0.i.i.i = phi i8 [ %45, %43 ], [ %50, %46 ]
  %51 = call noundef nonnull align 8 dereferenceable(8) ptr @_ZNSo3putEc(ptr noundef nonnull align 8 dereferenceable(8) %.0.i, i8 noundef signext %.0.i.i.i)
  %52 = call noundef nonnull align 8 dereferenceable(8) ptr @_ZNSo5flushEv(ptr noundef nonnull align 8 dereferenceable(8) %51)
  br label %53

53:                                               ; preds = %_ZSt4endlIcSt11char_traitsIcEERSt13basic_ostreamIT_T0_ES6_.exit, %_Z7deallocISoEvPT_.exit
  %54 = zext i1 %or.cond.not to i8
  store atomic i8 %54, ptr @g_z3_log_enabled seq_cst, align 1
  ret i1 %or.cond.not
}